; Function Attrs: mustprogress uwtable
define internal fastcc noundef zeroext i1 @"_ZN9__gnu_cxx5__ops10_Iter_predIZN17cmScriptGenerator18GeneratesForConfigERKNSt7__cxx1112basic_stringIcSt11char_traitsIcESaIcEEEE3$_0EclINS_17__normal_iteratorIPS9_St6vectorIS8_SaIS8_EEEEEEbT_"(ptr nocapture noundef nonnull readonly align 8 dereferenceable(8) %0, ptr nonnull %1) unnamed_addr #5 align 2 personality ptr @__gxx_personality_v0 {
  %3 = alloca %"class.std::__cxx11::basic_string", align 8
  call void @llvm.lifetime.start.p0(i64 32, ptr nonnull %3)
  call void @_ZN5cmsys11SystemTools9UpperCaseERKNSt7__cxx1112basic_stringIcSt11char_traitsIcESaIcEEE(ptr dead_on_unwind nonnull writable sret(%"class.std::__cxx11::basic_string") align 8 %3, ptr noundef nonnull align 8 dereferenceable(32) %1)
  %4 = load ptr, ptr %0, align 8
  %5 = call noundef i64 @_ZNKSt7__cxx1112basic_stringIcSt11char_traitsIcESaIcEE4sizeEv(ptr noundef nonnull align 8 dereferenceable(32) %3) #11
  %6 = call noundef i64 @_ZNKSt7__cxx1112basic_stringIcSt11char_traitsIcESaIcEE4sizeEv(ptr noundef nonnull align 8 dereferenceable(32) %4) #11
  %7 = icmp eq i64 %5, %6
  br i1 %7, label %8, label %"_ZZN17cmScriptGenerator18GeneratesForConfigERKNSt7__cxx1112basic_stringIcSt11char_traitsIcESaIcEEEENK3$_0clES7_.exit"

8:                                                ; preds = %2
  %9 = call noundef ptr @_ZNKSt7__cxx1112basic_stringIcSt11char_traitsIcESaIcEE4dataEv(ptr noundef nonnull align 8 dereferenceable(32) %3) #11
  %10 = call noundef ptr @_ZNKSt7__cxx1112basic_stringIcSt11char_traitsIcESaIcEE4dataEv(ptr noundef nonnull align 8 dereferenceable(32) %4) #11
  %11 = call noundef i64 @_ZNKSt7__cxx1112basic_stringIcSt11char_traitsIcESaIcEE4sizeEv(ptr noundef nonnull align 8 dereferenceable(32) %3) #11
  %12 = icmp eq i64 %11, 0
  br i1 %12, label %"_ZZN17cmScriptGenerator18GeneratesForConfigERKNSt7__cxx1112basic_stringIcSt11char_traitsIcESaIcEEEENK3$_0clES7_.exit", label %13

13:                                               ; preds = %8
  %bcmp.i.i = call i32 @bcmp(ptr %9, ptr %10, i64 %11)
  %14 = icmp eq i32 %bcmp.i.i, 0
  br label %"_ZZN17cmScriptGenerator18GeneratesForConfigERKNSt7__cxx1112basic_stringIcSt11char_traitsIcESaIcEEEENK3$_0clES7_.exit"

"_ZZN17cmScriptGenerator18GeneratesForConfigERKNSt7__cxx1112basic_stringIcSt11char_traitsIcESaIcEEEENK3$_0clES7_.exit": ; preds = %2, %8, %13
  %15 = phi i1 [ false, %2 ], [ %14, %13 ], [ true, %8 ]
  call void @_ZNSt7__cxx1112basic_stringIcSt11char_traitsIcESaIcEED1Ev(ptr noundef nonnull align 8 dereferenceable(32) %3) #11
  call void @llvm.lifetime.end.p0(i64 32, ptr nonnull %3)
  ret i1 %15
}